; Function Attrs: nounwind uwtable
define ptr @l___private_Lean_Meta_Tactic_Grind_PP_0__Lean_Meta_Grind_Goal_ppENodeDecl___lambda__3(ptr noundef %0, ptr noundef %1, ptr noundef %2, ptr noundef readonly captures(none) %3, ptr noundef %4, ptr noundef readnone captures(none) %5, ptr noundef %6, ptr noundef %7, ptr noundef %8, ptr noundef %9, ptr noundef %10) local_unnamed_addr #0 {
  %12 = getelementptr inbounds nuw i8, ptr %3, i64 114
  %13 = load i8, ptr %12, align 1, !tbaa !14
  %14 = icmp eq i8 %13, 0
  br i1 %14, label %23, label %15

15:                                               ; preds = %11
  %16 = load ptr, ptr @l___private_Lean_Meta_Tactic_Grind_PP_0__Lean_Meta_Grind_Goal_ppENodeDecl___lambda__3___closed__3, align 8, !tbaa !10
  tail call void @lean_inc_heartbeat() #4
  %17 = tail call noalias ptr @mi_malloc_small(i64 noundef 24) #4
  %18 = icmp eq ptr %17, null
  br i1 %18, label %19, label %lean_alloc_ctor.exit

19:                                               ; preds = %15
  tail call void @lean_internal_panic_out_of_memory() #5
  unreachable

lean_alloc_ctor.exit:                             ; preds = %15
  %20 = getelementptr inbounds nuw i8, ptr %17, i64 4
  store i32 1, ptr %17, align 4, !tbaa !4
  store i32 117571608, ptr %20, align 4
  %21 = getelementptr inbounds nuw i8, ptr %17, i64 8
  store ptr %4, ptr %21, align 8, !tbaa !10
  %22 = getelementptr inbounds nuw i8, ptr %17, i64 16
  store ptr %16, ptr %22, align 8, !tbaa !10
  br label %23

23:                                               ; preds = %11, %lean_alloc_ctor.exit
  %.sink = phi ptr [ %17, %lean_alloc_ctor.exit ], [ %4, %11 ]
  %24 = tail call ptr @l___private_Lean_Meta_Tactic_Grind_PP_0__Lean_Meta_Grind_Goal_ppENodeDecl___lambda__2(ptr noundef %0, ptr noundef %1, ptr noundef %2, ptr noundef %.sink, ptr nonnull poison, ptr noundef %6, ptr noundef %7, ptr noundef %8, ptr noundef %9, ptr noundef %10)
  ret ptr %24
}